; Function Attrs: mustprogress uwtable
define void @cvSub(ptr noundef %0, ptr noundef %1, ptr noundef %2, ptr noundef %3) local_unnamed_addr #0 personality ptr @__gxx_personality_v0 {
  %5 = alloca %"class.cv::Mat", align 8
  %6 = alloca %"class.cv::Mat", align 8
  %7 = alloca %"class.cv::Mat", align 8
  %8 = alloca %"class.cv::Mat", align 8
  %9 = alloca %"class.std::__cxx11::basic_string", align 8
  %10 = alloca %"class.std::allocator", align 1
  %11 = alloca %"class.cv::Mat", align 8
  %12 = alloca %"class.cv::_InputArray", align 8
  %13 = alloca %"class.cv::_InputArray", align 8
  %14 = alloca %"class.cv::_OutputArray", align 8
  %15 = alloca %"class.cv::_InputArray", align 8
  call void @_ZN2cv10cvarrToMatEPKvbbiPNS_10AutoBufferIdLm136EEE(ptr dead_on_unwind nonnull writable sret(%"class.cv::Mat") align 8 %5, ptr noundef %0, i1 noundef zeroext false, i1 noundef zeroext true, i32 noundef 0, ptr noundef null)
  invoke void @_ZN2cv10cvarrToMatEPKvbbiPNS_10AutoBufferIdLm136EEE(ptr dead_on_unwind nonnull writable sret(%"class.cv::Mat") align 8 %6, ptr noundef %1, i1 noundef zeroext false, i1 noundef zeroext true, i32 noundef 0, ptr noundef null)
          to label %16 unwind label %27

16:                                               ; preds = %4
  invoke void @_ZN2cv10cvarrToMatEPKvbbiPNS_10AutoBufferIdLm136EEE(ptr dead_on_unwind nonnull writable sret(%"class.cv::Mat") align 8 %7, ptr noundef %2, i1 noundef zeroext false, i1 noundef zeroext true, i32 noundef 0, ptr noundef null)
          to label %17 unwind label %29

17:                                               ; preds = %16
  call void @_ZN2cv3MatC1Ev(ptr noundef nonnull align 8 dereferenceable(96) %8) #18
  %18 = getelementptr inbounds i8, ptr %5, i64 64
  %19 = getelementptr inbounds i8, ptr %7, i64 64
  %20 = call noundef zeroext i1 @_ZNK2cv7MatSizeeqERKS0_(ptr noundef nonnull align 8 dereferenceable(8) %18, ptr noundef nonnull align 8 dereferenceable(8) %19) #18
  br i1 %20, label %21, label %33

21:                                               ; preds = %17
  %22 = load i32, ptr %5, align 8
  %23 = load i32, ptr %7, align 8
  %24 = xor i32 %23, %22
  %25 = and i32 %24, 4088
  %26 = icmp eq i32 %25, 0
  br i1 %26, label %41, label %33

27:                                               ; preds = %4
  %28 = landingpad { ptr, i32 }
          cleanup
  br label %67

29:                                               ; preds = %16
  %30 = landingpad { ptr, i32 }
          cleanup
  br label %66

31:                                               ; preds = %42
  %32 = landingpad { ptr, i32 }
          cleanup
  br label %65

33:                                               ; preds = %21, %17
  call void @_ZNSaIcEC1Ev(ptr noundef nonnull align 1 dereferenceable(1) %10) #18
  invoke void @_ZNSt7__cxx1112basic_stringIcSt11char_traitsIcESaIcEEC1EPKcRKS3_(ptr noundef nonnull align 8 dereferenceable(32) %9, ptr noundef nonnull @.str.35, ptr noundef nonnull align 1 dereferenceable(1) %10)
          to label %34 unwind label %36

34:                                               ; preds = %33
  invoke void @_ZN2cv5errorEiRKNSt7__cxx1112basic_stringIcSt11char_traitsIcESaIcEEEPKcS9_i(i32 noundef -215, ptr noundef nonnull align 8 dereferenceable(32) %9, ptr noundef nonnull @__func__.cvSub, ptr noundef nonnull @.str.1, i32 noundef 2069) #19
          to label %35 unwind label %38

35:                                               ; preds = %34
  unreachable

36:                                               ; preds = %33
  %37 = landingpad { ptr, i32 }
          cleanup
  br label %40

38:                                               ; preds = %34
  %39 = landingpad { ptr, i32 }
          cleanup
  call void @_ZNSt7__cxx1112basic_stringIcSt11char_traitsIcESaIcEED1Ev(ptr noundef nonnull align 8 dereferenceable(32) %9) #18
  br label %40

40:                                               ; preds = %38, %36
  %.pn = phi { ptr, i32 } [ %39, %38 ], [ %37, %36 ]
  call void @_ZNSaIcED1Ev(ptr noundef nonnull align 1 dereferenceable(1) %10) #18
  br label %65

41:                                               ; preds = %21
  %.not = icmp eq ptr %3, null
  br i1 %.not, label %48, label %42

42:                                               ; preds = %41
  invoke void @_ZN2cv10cvarrToMatEPKvbbiPNS_10AutoBufferIdLm136EEE(ptr dead_on_unwind nonnull writable sret(%"class.cv::Mat") align 8 %11, ptr noundef nonnull %3, i1 noundef zeroext false, i1 noundef zeroext true, i32 noundef 0, ptr noundef null)
          to label %43 unwind label %31

43:                                               ; preds = %42
  %44 = invoke noundef nonnull align 8 dereferenceable(96) ptr @_ZN2cv3MataSEOS0_(ptr noundef nonnull align 8 dereferenceable(96) %8, ptr noundef nonnull align 8 dereferenceable(96) %11)
          to label %45 unwind label %46

45:                                               ; preds = %43
  call void @_ZN2cv3MatD1Ev(ptr noundef nonnull align 8 dereferenceable(96) %11) #18
  %.pre = load i32, ptr %7, align 8
  br label %48

46:                                               ; preds = %43
  %47 = landingpad { ptr, i32 }
          cleanup
  call void @_ZN2cv3MatD1Ev(ptr noundef nonnull align 8 dereferenceable(96) %11) #18
  br label %65

48:                                               ; preds = %45, %41
  %49 = phi i32 [ %.pre, %45 ], [ %23, %41 ]
  %50 = getelementptr inbounds i8, ptr %12, i64 16
  store i32 0, ptr %50, align 8
  %51 = getelementptr inbounds i8, ptr %12, i64 20
  store i32 0, ptr %51, align 4
  store i32 16842752, ptr %12, align 8
  %52 = getelementptr inbounds i8, ptr %12, i64 8
  store ptr %5, ptr %52, align 8
  %53 = getelementptr inbounds i8, ptr %13, i64 16
  store i32 0, ptr %53, align 8
  %54 = getelementptr inbounds i8, ptr %13, i64 20
  store i32 0, ptr %54, align 4
  store i32 16842752, ptr %13, align 8
  %55 = getelementptr inbounds i8, ptr %13, i64 8
  store ptr %6, ptr %55, align 8
  %56 = getelementptr inbounds i8, ptr %14, i64 8
  %57 = getelementptr inbounds i8, ptr %14, i64 16
  store i64 0, ptr %57, align 8
  store i32 33619968, ptr %14, align 8
  store ptr %7, ptr %56, align 8
  %58 = getelementptr inbounds i8, ptr %15, i64 16
  store i32 0, ptr %58, align 8
  %59 = getelementptr inbounds i8, ptr %15, i64 20
  store i32 0, ptr %59, align 4
  store i32 16842752, ptr %15, align 8
  %60 = getelementptr inbounds i8, ptr %15, i64 8
  store ptr %8, ptr %60, align 8
  %61 = and i32 %49, 4095
  invoke void @_ZN2cv8subtractERKNS_11_InputArrayES2_RKNS_12_OutputArrayES2_i(ptr noundef nonnull align 8 dereferenceable(24) %12, ptr noundef nonnull align 8 dereferenceable(24) %13, ptr noundef nonnull align 8 dereferenceable(24) %14, ptr noundef nonnull align 8 dereferenceable(24) %15, i32 noundef %61)
          to label %62 unwind label %63

62:                                               ; preds = %48
  call void @_ZN2cv3MatD1Ev(ptr noundef nonnull align 8 dereferenceable(96) %8) #18
  call void @_ZN2cv3MatD1Ev(ptr noundef nonnull align 8 dereferenceable(96) %7) #18
  call void @_ZN2cv3MatD1Ev(ptr noundef nonnull align 8 dereferenceable(96) %6) #18
  call void @_ZN2cv3MatD1Ev(ptr noundef nonnull align 8 dereferenceable(96) %5) #18
  ret void

63:                                               ; preds = %48
  %64 = landingpad { ptr, i32 }
          cleanup
  br label %65

65:                                               ; preds = %63, %46, %40, %31
  %.pn15.pn.pn.pn = phi { ptr, i32 } [ %32, %31 ], [ %47, %46 ], [ %.pn, %40 ], [ %64, %63 ]
  call void @_ZN2cv3MatD1Ev(ptr noundef nonnull align 8 dereferenceable(96) %8) #18
  call void @_ZN2cv3MatD1Ev(ptr noundef nonnull align 8 dereferenceable(96) %7) #18
  br label %66

66:                                               ; preds = %65, %29
  %.pn15.pn.pn.pn.pn = phi { ptr, i32 } [ %.pn15.pn.pn.pn, %65 ], [ %30, %29 ]
  call void @_ZN2cv3MatD1Ev(ptr noundef nonnull align 8 dereferenceable(96) %6) #18
  br label %67

67:                                               ; preds = %66, %27
  %.pn15.pn.pn.pn.pn.pn = phi { ptr, i32 } [ %.pn15.pn.pn.pn.pn, %66 ], [ %28, %27 ]
  call void @_ZN2cv3MatD1Ev(ptr noundef nonnull align 8 dereferenceable(96) %5) #18
  resume { ptr, i32 } %.pn15.pn.pn.pn.pn.pn
}